target datalayout = "e-m:e-p270:32:32-p271:32:32-p272:64:64-i64:64-i128:128-f80:128-n8:16:32:64-S128"
target triple = "x86_64-unknown-linux-gnu"

@zmalloc_oom_handler = internal global ptr @zmalloc_default_oom, align 8

; Function Attrs: nounwind allocsize(1) uwtable
define dso_local ptr @extend_to_usable(ptr noundef %ptr, i64 noundef %size) #2 {
entry:
  %ptr.addr = alloca ptr, align 8
  %size.addr = alloca i64, align 8
  store ptr %ptr, ptr %ptr.addr, align 8
  store i64 %size, ptr %size.addr, align 8
  %0 = load ptr, ptr %ptr.addr, align 8
  ret ptr %0
}

; Function Attrs: nounwind uwtable
define dso_local ptr @ztryrealloc_usable(ptr noundef %ptr, i64 noundef %size, ptr noundef %usable) #0 {
entry:
  %ptr.addr = alloca ptr, align 8
  %size.addr = alloca i64, align 8
  %usable.addr = alloca ptr, align 8
  %usable_size = alloca i64, align 8
  store ptr %ptr, ptr %ptr.addr, align 8
  store i64 %size, ptr %size.addr, align 8
  store ptr %usable, ptr %usable.addr, align 8
  store i64 0, ptr %usable_size, align 8
  %0 = load ptr, ptr %ptr.addr, align 8
  %1 = load i64, ptr %size.addr, align 8
  %call = call ptr @ztryrealloc_usable_internal(ptr noundef %0, i64 noundef %1, ptr noundef %usable_size)
  store ptr %call, ptr %ptr.addr, align 8
  %2 = load ptr, ptr %ptr.addr, align 8
  %3 = load i64, ptr %usable_size, align 8
  %call1 = call ptr @extend_to_usable(ptr noundef %2, i64 noundef %3) #13
  store ptr %call1, ptr %ptr.addr, align 8
  %4 = load ptr, ptr %usable.addr, align 8
  %tobool = icmp ne ptr %4, null
  br i1 %tobool, label %if.then, label %if.end

if.then:                                          ; preds = %entry
  %5 = load i64, ptr %usable_size, align 8
  %6 = load ptr, ptr %usable.addr, align 8
  store i64 %5, ptr %6, align 8
  br label %if.end

if.end:                                           ; preds = %if.then, %entry
  %7 = load ptr, ptr %ptr.addr, align 8
  ret ptr %7
}

; Function Attrs: nounwind uwtable
define dso_local ptr @zrealloc_usable(ptr noundef %ptr, i64 noundef %size, ptr noundef %usable) #0 {
entry:
  %ptr.addr = alloca ptr, align 8
  %size.addr = alloca i64, align 8
  %usable.addr = alloca ptr, align 8
  %usable_size = alloca i64, align 8
  store ptr %ptr, ptr %ptr.addr, align 8
  store i64 %size, ptr %size.addr, align 8
  store ptr %usable, ptr %usable.addr, align 8
  store i64 0, ptr %usable_size, align 8
  %0 = load ptr, ptr %ptr.addr, align 8
  %1 = load i64, ptr %size.addr, align 8
  %call = call ptr @ztryrealloc_usable(ptr noundef %0, i64 noundef %1, ptr noundef %usable_size)
  store ptr %call, ptr %ptr.addr, align 8
  %2 = load ptr, ptr %ptr.addr, align 8
  %tobool = icmp ne ptr %2, null
  br i1 %tobool, label %if.end, label %land.lhs.true

land.lhs.true:                                    ; preds = %entry
  %3 = load i64, ptr %size.addr, align 8
  %cmp = icmp ne i64 %3, 0
  br i1 %cmp, label %if.then, label %if.end

if.then:                                          ; preds = %land.lhs.true
  %4 = load ptr, ptr @zmalloc_oom_handler, align 8
  %5 = load i64, ptr %size.addr, align 8
  call void %4(i64 noundef %5)
  br label %if.end

if.end:                                           ; preds = %if.then, %land.lhs.true, %entry
  %6 = load ptr, ptr %ptr.addr, align 8
  %7 = load i64, ptr %usable_size, align 8
  %call1 = call ptr @extend_to_usable(ptr noundef %6, i64 noundef %7) #13
  store ptr %call1, ptr %ptr.addr, align 8
  %8 = load ptr, ptr %usable.addr, align 8
  %tobool2 = icmp ne ptr %8, null
  br i1 %tobool2, label %if.then3, label %if.end4

if.then3:                                         ; preds = %if.end
  %9 = load i64, ptr %usable_size, align 8
  %10 = load ptr, ptr %usable.addr, align 8
  store i64 %9, ptr %10, align 8
  br label %if.end4

if.end4:                                          ; preds = %if.then3, %if.end
  %11 = load ptr, ptr %ptr.addr, align 8
  ret ptr %11
}