; Function Attrs: nounwind uwtable
define dso_local ptr @zrealloc_usable(ptr noundef %ptr, i64 noundef %size, ptr noundef writeonly %usable) local_unnamed_addr #3 {
entry:
  %usable_size.i = alloca i64, align 8
  call void @llvm.lifetime.start.p0(i64 8, ptr nonnull %usable_size.i)
  store i64 0, ptr %usable_size.i, align 8
  %call.i = call fastcc ptr @ztryrealloc_usable_internal(ptr noundef %ptr, i64 noundef %size, ptr noundef nonnull %usable_size.i)
  %0 = load i64, ptr %usable_size.i, align 8
  call void @llvm.lifetime.end.p0(i64 8, ptr nonnull %usable_size.i)
  %tobool = icmp eq ptr %call.i, null
  %cmp = icmp ne i64 %size, 0
  %or.cond = and i1 %cmp, %tobool
  br i1 %or.cond, label %if.then, label %if.end

if.then:                                          ; preds = %entry
  %1 = load ptr, ptr @zmalloc_oom_handler, align 8
  call void %1(i64 noundef %size) #24
  br label %if.end

if.end:                                           ; preds = %if.then, %entry
  %tobool2.not = icmp eq ptr %usable, null
  br i1 %tobool2.not, label %if.end4, label %if.then3

if.then3:                                         ; preds = %if.end
  store i64 %0, ptr %usable, align 8
  br label %if.end4

if.end4:                                          ; preds = %if.then3, %if.end
  ret ptr %call.i
}